; Function Attrs: nounwind uwtable
define dso_local void @assign_recovery_target_xid(ptr noundef readonly captures(address_is_null) %0, ptr noundef readonly captures(none) %1) local_unnamed_addr #2 {
  %3 = load i32, ptr @recoveryTarget, align 4
  %or.cond = icmp ugt i32 %3, 1
  br i1 %or.cond, label %4, label %5

4:                                                ; preds = %2
  tail call fastcc void @error_multiple_recovery_targets() #28
  unreachable

5:                                                ; preds = %2
  %.not = icmp eq ptr %0, null
  br i1 %.not, label %9, label %6

6:                                                ; preds = %5
  %strcmpload = load i8, ptr %0, align 1
  %.not4 = icmp eq i8 %strcmpload, 0
  br i1 %.not4, label %9, label %7

7:                                                ; preds = %6
  store i32 1, ptr @recoveryTarget, align 4
  %8 = load i32, ptr %1, align 4
  store i32 %8, ptr @recoveryTargetXid, align 4
  br label %10

9:                                                ; preds = %6, %5
  store i32 0, ptr @recoveryTarget, align 4
  br label %10

10:                                               ; preds = %9, %7
  ret void
}